target datalayout = "e-m:e-p270:32:32-p271:32:32-p272:64:64-i64:64-i128:128-f80:128-n8:16:32:64-S128"
target triple = "x86_64-pc-linux-gnu"

%struct.sockaddr = type { i16, [14 x i8] }
%struct.sockaddr_in = type { i16, i16, %struct.in_addr, [8 x i8] }
%struct.in_addr = type { i32 }
%struct.sockaddr_in6 = type { i16, i16, i32, %struct.in6_addr, i32 }
%struct.in6_addr = type { %union.anon }
%union.anon = type { [4 x i32] }
%struct.LOCALNET = type { ptr, [4 x i32], [4 x i32], i32 }

@lnet = dso_local global ptr null, align 8

; Function Attrs: nounwind uwtable
define internal i32 @islocalnet(i32 noundef %0, ptr noundef %1) #0 {
  %3 = alloca i32, align 4
  %4 = alloca i32, align 4
  %5 = alloca ptr, align 8
  %6 = alloca ptr, align 8
  store i32 %0, ptr %4, align 4
  store ptr %1, ptr %5, align 8
  %7 = load ptr, ptr @lnet, align 8
  store ptr %7, ptr %6, align 8
  %8 = load ptr, ptr %6, align 8
  %9 = icmp ne ptr %8, null
  br i1 %9, label %11, label %10

10:                                               ; preds = %2
  store i32 0, ptr %3, align 4
  br label %83

11:                                               ; preds = %2
  br label %12

12:                                               ; preds = %78, %11
  %13 = load ptr, ptr %6, align 8
  %14 = icmp ne ptr %13, null
  br i1 %14, label %15, label %82

15:                                               ; preds = %12
  %16 = load ptr, ptr %6, align 8
  %17 = getelementptr inbounds %struct.LOCALNET, ptr %16, i32 0, i32 3
  %18 = load i32, ptr %17, align 8
  %19 = load i32, ptr %4, align 4
  %20 = icmp eq i32 %18, %19
  br i1 %20, label %21, label %78

21:                                               ; preds = %15
  %22 = load ptr, ptr %6, align 8
  %23 = getelementptr inbounds %struct.LOCALNET, ptr %22, i32 0, i32 1
  %24 = getelementptr inbounds [4 x i32], ptr %23, i64 0, i64 0
  %25 = load i32, ptr %24, align 8
  %26 = load ptr, ptr %5, align 8
  %27 = getelementptr inbounds i32, ptr %26, i64 0
  %28 = load i32, ptr %27, align 4
  %29 = load ptr, ptr %6, align 8
  %30 = getelementptr inbounds %struct.LOCALNET, ptr %29, i32 0, i32 2
  %31 = getelementptr inbounds [4 x i32], ptr %30, i64 0, i64 0
  %32 = load i32, ptr %31, align 8
  %33 = and i32 %28, %32
  %34 = icmp eq i32 %25, %33
  br i1 %34, label %35, label %78

35:                                               ; preds = %21
  %36 = load ptr, ptr %6, align 8
  %37 = getelementptr inbounds %struct.LOCALNET, ptr %36, i32 0, i32 1
  %38 = getelementptr inbounds [4 x i32], ptr %37, i64 0, i64 1
  %39 = load i32, ptr %38, align 4
  %40 = load ptr, ptr %5, align 8
  %41 = getelementptr inbounds i32, ptr %40, i64 1
  %42 = load i32, ptr %41, align 4
  %43 = load ptr, ptr %6, align 8
  %44 = getelementptr inbounds %struct.LOCALNET, ptr %43, i32 0, i32 2
  %45 = getelementptr inbounds [4 x i32], ptr %44, i64 0, i64 1
  %46 = load i32, ptr %45, align 4
  %47 = and i32 %42, %46
  %48 = icmp eq i32 %39, %47
  br i1 %48, label %49, label %78

49:                                               ; preds = %35
  %50 = load ptr, ptr %6, align 8
  %51 = getelementptr inbounds %struct.LOCALNET, ptr %50, i32 0, i32 1
  %52 = getelementptr inbounds [4 x i32], ptr %51, i64 0, i64 2
  %53 = load i32, ptr %52, align 8
  %54 = load ptr, ptr %5, align 8
  %55 = getelementptr inbounds i32, ptr %54, i64 2
  %56 = load i32, ptr %55, align 4
  %57 = load ptr, ptr %6, align 8
  %58 = getelementptr inbounds %struct.LOCALNET, ptr %57, i32 0, i32 2
  %59 = getelementptr inbounds [4 x i32], ptr %58, i64 0, i64 2
  %60 = load i32, ptr %59, align 8
  %61 = and i32 %56, %60
  %62 = icmp eq i32 %53, %61
  br i1 %62, label %63, label %78

63:                                               ; preds = %49
  %64 = load ptr, ptr %6, align 8
  %65 = getelementptr inbounds %struct.LOCALNET, ptr %64, i32 0, i32 1
  %66 = getelementptr inbounds [4 x i32], ptr %65, i64 0, i64 3
  %67 = load i32, ptr %66, align 4
  %68 = load ptr, ptr %5, align 8
  %69 = getelementptr inbounds i32, ptr %68, i64 3
  %70 = load i32, ptr %69, align 4
  %71 = load ptr, ptr %6, align 8
  %72 = getelementptr inbounds %struct.LOCALNET, ptr %71, i32 0, i32 2
  %73 = getelementptr inbounds [4 x i32], ptr %72, i64 0, i64 3
  %74 = load i32, ptr %73, align 4
  %75 = and i32 %70, %74
  %76 = icmp eq i32 %67, %75
  br i1 %76, label %77, label %78

77:                                               ; preds = %63
  store i32 1, ptr %3, align 4
  br label %83

78:                                               ; preds = %63, %49, %35, %21, %15
  %79 = load ptr, ptr %6, align 8
  %80 = getelementptr inbounds %struct.LOCALNET, ptr %79, i32 0, i32 0
  %81 = load ptr, ptr %80, align 8
  store ptr %81, ptr %6, align 8
  br label %12

82:                                               ; preds = %12
  store i32 0, ptr %3, align 4
  br label %83

83:                                               ; preds = %82, %77, %10
  %84 = load i32, ptr %3, align 4
  ret i32 %84
}

; Function Attrs: nounwind uwtable
define dso_local i32 @islocalnet_sock(ptr noundef %0) #0 {
  %2 = alloca i32, align 4
  %3 = alloca ptr, align 8
  %4 = alloca [4 x i32], align 16
  %5 = alloca i32, align 4
  %6 = alloca ptr, align 8
  %7 = alloca ptr, align 8
  %8 = alloca i32, align 4
  %9 = alloca i32, align 4
  %10 = alloca i32, align 4
  store ptr %0, ptr %3, align 8
  call void @llvm.memset.p0.i64(ptr align 16 %4, i8 0, i64 16, i1 false)
  %11 = load ptr, ptr @lnet, align 8
  %12 = icmp ne ptr %11, null
  br i1 %12, label %14, label %13

13:                                               ; preds = %1
  store i32 0, ptr %2, align 4
  br label %73

14:                                               ; preds = %1
  %15 = load ptr, ptr %3, align 8
  %16 = getelementptr inbounds %struct.sockaddr, ptr %15, i32 0, i32 0
  %17 = load i16, ptr %16, align 2
  %18 = zext i16 %17 to i32
  %19 = icmp eq i32 %18, 2
  br i1 %19, label %20, label %28

20:                                               ; preds = %14
  %21 = load ptr, ptr %3, align 8
  store ptr %21, ptr %6, align 8
  store i32 1, ptr %5, align 4
  %22 = load ptr, ptr %6, align 8
  %23 = getelementptr inbounds %struct.sockaddr_in, ptr %22, i32 0, i32 2
  %24 = getelementptr inbounds %struct.in_addr, ptr %23, i32 0, i32 0
  %25 = load i32, ptr %24, align 4
  %26 = call i32 @htonl(i32 noundef %25) #9
  %27 = getelementptr inbounds [4 x i32], ptr %4, i64 0, i64 0
  store i32 %26, ptr %27, align 16
  br label %69

28:                                               ; preds = %14
  %29 = load ptr, ptr %3, align 8
  %30 = getelementptr inbounds %struct.sockaddr, ptr %29, i32 0, i32 0
  %31 = load i16, ptr %30, align 2
  %32 = zext i16 %31 to i32
  %33 = icmp eq i32 %32, 10
  br i1 %33, label %34, label %67

34:                                               ; preds = %28
  %35 = load ptr, ptr %3, align 8
  store ptr %35, ptr %7, align 8
  store i32 0, ptr %10, align 4
  store i32 2, ptr %5, align 4
  store i32 0, ptr %8, align 4
  store i32 0, ptr %9, align 4
  br label %36

36:                                               ; preds = %63, %34
  %37 = load i32, ptr %8, align 4
  %38 = icmp ult i32 %37, 16
  br i1 %38, label %39, label %66

39:                                               ; preds = %36
  %40 = load ptr, ptr %7, align 8
  %41 = getelementptr inbounds %struct.sockaddr_in6, ptr %40, i32 0, i32 3
  %42 = getelementptr inbounds %struct.in6_addr, ptr %41, i32 0, i32 0
  %43 = load i32, ptr %8, align 4
  %44 = zext i32 %43 to i64
  %45 = getelementptr inbounds [16 x i8], ptr %42, i64 0, i64 %44
  %46 = load i8, ptr %45, align 1
  %47 = zext i8 %46 to i32
  %48 = load i32, ptr %9, align 4
  %49 = mul i32 8, %48
  %50 = shl i32 %47, %49
  %51 = load i32, ptr %10, align 4
  %52 = add i32 %51, %50
  store i32 %52, ptr %10, align 4
  %53 = load i32, ptr %9, align 4
  %54 = add i32 %53, 1
  store i32 %54, ptr %9, align 4
  %55 = icmp eq i32 %54, 4
  br i1 %55, label %56, label %62

56:                                               ; preds = %39
  %57 = load i32, ptr %10, align 4
  %58 = load i32, ptr %8, align 4
  %59 = lshr i32 %58, 2
  %60 = zext i32 %59 to i64
  %61 = getelementptr inbounds [4 x i32], ptr %4, i64 0, i64 %60
  store i32 %57, ptr %61, align 4
  store i32 0, ptr %10, align 4
  store i32 0, ptr %9, align 4
  br label %62

62:                                               ; preds = %56, %39
  br label %63

63:                                               ; preds = %62
  %64 = load i32, ptr %8, align 4
  %65 = add i32 %64, 1
  store i32 %65, ptr %8, align 4
  br label %36

66:                                               ; preds = %36
  br label %68

67:                                               ; preds = %28
  store i32 0, ptr %2, align 4
  br label %73

68:                                               ; preds = %66
  br label %69

69:                                               ; preds = %68, %20
  %70 = load i32, ptr %5, align 4
  %71 = getelementptr inbounds [4 x i32], ptr %4, i64 0, i64 0
  %72 = call i32 @islocalnet(i32 noundef %70, ptr noundef %71)
  store i32 %72, ptr %2, align 4
  br label %73

73:                                               ; preds = %69, %67, %13
  %74 = load i32, ptr %2, align 4
  ret i32 %74
}