; Function Attrs: nofree nosync nounwind memory(read, inaccessiblemem: none) uwtable
define dso_local noundef i32 @islocalnet_sock(ptr nocapture noundef readonly %0) local_unnamed_addr #10 {
  %2 = alloca [4 x i32], align 16
  call void @llvm.memset.p0.i64(ptr noundef nonnull align 16 dereferenceable(16) %2, i8 0, i64 16, i1 false)
  %3 = load ptr, ptr @lnet, align 8
  %.not = icmp eq ptr %3, null
  br i1 %.not, label %islocalnet.exit, label %4

4:                                                ; preds = %1
  %5 = load i16, ptr %0, align 2
  switch i16 %5, label %islocalnet.exit [
    i16 2, label %.preheader.i
    i16 10, label %.preheader
  ]

.preheader:                                       ; preds = %4
  %6 = getelementptr inbounds i8, ptr %0, i64 8
  br label %76

.preheader.i:                                     ; preds = %4
  %7 = getelementptr inbounds i8, ptr %0, i64 4
  %8 = load i32, ptr %7, align 4
  %9 = tail call i32 @htonl(i32 noundef %8) #14
  br label %10

10:                                               ; preds = %33, %.preheader.i
  %.020.i = phi ptr [ %3, %.preheader.i ], [ %34, %33 ]
  %11 = getelementptr inbounds i8, ptr %.020.i, i64 40
  %12 = load i32, ptr %11, align 8
  %13 = icmp eq i32 %12, 1
  br i1 %13, label %14, label %33

14:                                               ; preds = %10
  %15 = getelementptr inbounds i8, ptr %.020.i, i64 8
  %16 = load i32, ptr %15, align 8
  %17 = getelementptr inbounds i8, ptr %.020.i, i64 24
  %18 = load i32, ptr %17, align 8
  %19 = and i32 %18, %9
  %20 = icmp eq i32 %16, %19
  br i1 %20, label %21, label %33

21:                                               ; preds = %14
  %22 = getelementptr inbounds i8, ptr %.020.i, i64 12
  %23 = load i32, ptr %22, align 4
  %24 = icmp eq i32 %23, 0
  br i1 %24, label %25, label %33

25:                                               ; preds = %21
  %26 = getelementptr inbounds i8, ptr %.020.i, i64 16
  %27 = load i32, ptr %26, align 8
  %28 = icmp eq i32 %27, 0
  br i1 %28, label %29, label %33

29:                                               ; preds = %25
  %30 = getelementptr inbounds i8, ptr %.020.i, i64 20
  %31 = load i32, ptr %30, align 4
  %32 = icmp eq i32 %31, 0
  br i1 %32, label %islocalnet.exit, label %33

33:                                               ; preds = %29, %25, %21, %14, %10
  %34 = load ptr, ptr %.020.i, align 8
  %.not19.i = icmp eq ptr %34, null
  br i1 %.not19.i, label %islocalnet.exit, label %10

.preheader.i25:                                   ; preds = %89
  %35 = getelementptr inbounds i8, ptr %2, i64 4
  %36 = getelementptr inbounds i8, ptr %2, i64 8
  %37 = getelementptr inbounds i8, ptr %2, i64 12
  %38 = load i32, ptr %2, align 16
  %39 = load i32, ptr %35, align 4
  %40 = load i32, ptr %36, align 8
  %41 = load i32, ptr %37, align 4
  br label %42

42:                                               ; preds = %74, %.preheader.i25
  %.020.i26 = phi ptr [ %3, %.preheader.i25 ], [ %75, %74 ]
  %43 = getelementptr inbounds i8, ptr %.020.i26, i64 40
  %44 = load i32, ptr %43, align 8
  %45 = icmp eq i32 %44, 2
  br i1 %45, label %46, label %74

46:                                               ; preds = %42
  %47 = getelementptr inbounds i8, ptr %.020.i26, i64 8
  %48 = load i32, ptr %47, align 8
  %49 = getelementptr inbounds i8, ptr %.020.i26, i64 24
  %50 = load i32, ptr %49, align 8
  %51 = and i32 %50, %38
  %52 = icmp eq i32 %48, %51
  br i1 %52, label %53, label %74

53:                                               ; preds = %46
  %54 = getelementptr inbounds i8, ptr %.020.i26, i64 12
  %55 = load i32, ptr %54, align 4
  %56 = getelementptr inbounds i8, ptr %.020.i26, i64 28
  %57 = load i32, ptr %56, align 4
  %58 = and i32 %57, %39
  %59 = icmp eq i32 %55, %58
  br i1 %59, label %60, label %74

60:                                               ; preds = %53
  %61 = getelementptr inbounds i8, ptr %.020.i26, i64 16
  %62 = load i32, ptr %61, align 8
  %63 = getelementptr inbounds i8, ptr %.020.i26, i64 32
  %64 = load i32, ptr %63, align 8
  %65 = and i32 %64, %40
  %66 = icmp eq i32 %62, %65
  br i1 %66, label %67, label %74

67:                                               ; preds = %60
  %68 = getelementptr inbounds i8, ptr %.020.i26, i64 20
  %69 = load i32, ptr %68, align 4
  %70 = getelementptr inbounds i8, ptr %.020.i26, i64 36
  %71 = load i32, ptr %70, align 4
  %72 = and i32 %71, %41
  %73 = icmp eq i32 %69, %72
  br i1 %73, label %islocalnet.exit, label %74

74:                                               ; preds = %67, %60, %53, %46, %42
  %75 = load ptr, ptr %.020.i26, align 8
  %.not19.i27 = icmp eq ptr %75, null
  br i1 %.not19.i27, label %islocalnet.exit, label %42

76:                                               ; preds = %.preheader, %89
  %indvars.iv = phi i64 [ 0, %.preheader ], [ %indvars.iv.next, %89 ]
  %.034 = phi i32 [ 0, %.preheader ], [ %.1, %89 ]
  %.01533 = phi i32 [ 0, %.preheader ], [ %.116, %89 ]
  %77 = getelementptr inbounds [16 x i8], ptr %6, i64 0, i64 %indvars.iv
  %78 = load i8, ptr %77, align 1
  %79 = zext i8 %78 to i32
  %80 = shl i32 %.01533, 3
  %81 = shl i32 %79, %80
  %82 = add i32 %81, %.034
  %83 = add i32 %.01533, 1
  %84 = icmp eq i32 %83, 4
  br i1 %84, label %85, label %89

85:                                               ; preds = %76
  %86 = lshr i64 %indvars.iv, 2
  %87 = and i64 %86, 1073741823
  %88 = getelementptr inbounds [4 x i32], ptr %2, i64 0, i64 %87
  store i32 %82, ptr %88, align 4
  br label %89

89:                                               ; preds = %76, %85
  %.116 = phi i32 [ 0, %85 ], [ %83, %76 ]
  %.1 = phi i32 [ 0, %85 ], [ %82, %76 ]
  %indvars.iv.next = add nuw nsw i64 %indvars.iv, 1
  %exitcond.not = icmp eq i64 %indvars.iv.next, 16
  br i1 %exitcond.not, label %.preheader.i25, label %76

islocalnet.exit:                                  ; preds = %74, %67, %33, %29, %4, %1
  %.018 = phi i32 [ 0, %1 ], [ 0, %4 ], [ 1, %29 ], [ 0, %33 ], [ 1, %67 ], [ 0, %74 ]
  ret i32 %.018
}